; Function Attrs: mustprogress uwtable
define dso_local void @_ZN9cmFileAPI24BuildClientReplyResponseERKNS_13ClientRequestE(ptr dead_on_unwind noalias nonnull writable sret(%"class.Json::Value") align 8 %0, ptr noundef nonnull align 8 dereferenceable(296) %1, ptr noundef nonnull align 8 dereferenceable(48) %2) local_unnamed_addr #5 align 2 personality ptr @__gxx_personality_v0 {
  %4 = alloca %"class.Json::Value", align 8
  %5 = alloca %"class.Json::Value", align 8
  tail call void @_ZN4Json5ValueC1ENS_9ValueTypeE(ptr noundef nonnull align 8 dereferenceable(40) %0, i32 noundef 0)
  %6 = getelementptr inbounds nuw i8, ptr %2, i64 16
  %7 = getelementptr inbounds nuw i8, ptr %2, i64 24
  %8 = load i64, ptr %7, align 8, !tbaa !62
  %9 = icmp eq i64 %8, 0
  br i1 %9, label %23, label %10

10:                                               ; preds = %3
  call void @llvm.lifetime.start.p0(i64 40, ptr nonnull %5) #24
  invoke void @_ZN4Json5ValueC1ENS_9ValueTypeE(ptr noundef nonnull align 8 dereferenceable(40) %5, i32 noundef 7)
          to label %.noexc unwind label %21

.noexc:                                           ; preds = %10
  call void @llvm.lifetime.start.p0(i64 40, ptr nonnull %4) #24, !noalias !397
  invoke void @_ZN4Json5ValueC1ERKNSt7__cxx1112basic_stringIcSt11char_traitsIcESaIcEEE(ptr noundef nonnull align 8 dereferenceable(40) %4, ptr noundef nonnull align 8 dereferenceable(32) %6)
          to label %11 unwind label %13

11:                                               ; preds = %.noexc
  %12 = invoke noundef nonnull align 8 dereferenceable(40) ptr @_ZN4Json5ValueixEPKc(ptr noundef nonnull align 8 dereferenceable(40) %5, ptr noundef nonnull @.str.42)
          to label %18 unwind label %15

13:                                               ; preds = %.noexc
  %14 = landingpad { ptr, i32 }
          cleanup
  br label %17

15:                                               ; preds = %11
  %16 = landingpad { ptr, i32 }
          cleanup
  call void @_ZN4Json5ValueD1Ev(ptr noundef nonnull align 8 dereferenceable(40) %4) #24
  br label %17

17:                                               ; preds = %15, %13
  %.pn.i = phi { ptr, i32 } [ %16, %15 ], [ %14, %13 ]
  call void @llvm.lifetime.end.p0(i64 40, ptr nonnull %4) #24, !noalias !397
  call void @_ZN4Json5ValueD1Ev(ptr noundef nonnull align 8 dereferenceable(40) %5) #24
  br label %.body

18:                                               ; preds = %11
  %19 = call noundef nonnull align 8 dereferenceable(40) ptr @_ZN4Json5ValueaSEOS0_(ptr noundef nonnull align 8 dereferenceable(40) %12, ptr noundef nonnull align 8 dereferenceable(40) %4) #24
  call void @_ZN4Json5ValueD1Ev(ptr noundef nonnull align 8 dereferenceable(40) %4) #24
  call void @llvm.lifetime.end.p0(i64 40, ptr nonnull %4) #24, !noalias !397
  %20 = call noundef nonnull align 8 dereferenceable(40) ptr @_ZN4Json5ValueaSEOS0_(ptr noundef nonnull align 8 dereferenceable(40) %0, ptr noundef nonnull align 8 dereferenceable(40) %5) #24
  call void @_ZN4Json5ValueD1Ev(ptr noundef nonnull align 8 dereferenceable(40) %5) #24
  call void @llvm.lifetime.end.p0(i64 40, ptr nonnull %5) #24
  br label %29

21:                                               ; preds = %10
  %22 = landingpad { ptr, i32 }
          cleanup
  br label %.body

.body:                                            ; preds = %17, %21
  %eh.lpad-body = phi { ptr, i32 } [ %22, %21 ], [ %.pn.i, %17 ]
  call void @llvm.lifetime.end.p0(i64 40, ptr nonnull %5) #24
  br label %30

23:                                               ; preds = %3
  %24 = invoke noundef nonnull align 8 dereferenceable(40) ptr @_ZN9cmFileAPI19AddReplyIndexObjectERKNS_6ObjectE(ptr noundef nonnull align 8 dereferenceable(296) %1, ptr noundef nonnull align 8 dereferenceable(16) %2)
          to label %25 unwind label %27

25:                                               ; preds = %23
  %26 = invoke noundef nonnull align 8 dereferenceable(40) ptr @_ZN4Json5ValueaSERKS0_(ptr noundef nonnull align 8 dereferenceable(40) %0, ptr noundef nonnull align 8 dereferenceable(40) %24)
          to label %29 unwind label %27

27:                                               ; preds = %25, %23
  %28 = landingpad { ptr, i32 }
          cleanup
  br label %30

29:                                               ; preds = %18, %25
  ret void

30:                                               ; preds = %27, %.body
  %.pn = phi { ptr, i32 } [ %28, %27 ], [ %eh.lpad-body, %.body ]
  call void @_ZN4Json5ValueD1Ev(ptr noundef nonnull align 8 dereferenceable(40) %0) #24
  resume { ptr, i32 } %.pn
}